; Function Attrs: mustprogress nounwind uwtable
define internal void @_ZN12_GLOBAL__N_114GracefulGoawayD0Ev(ptr noundef nonnull align 8 dereferenceable(56) %this) unnamed_addr #6 align 2 personality ptr @__gxx_personality_v0 {
entry:
  store ptr getelementptr inbounds ({ [4 x ptr] }, ptr @_ZTVN12_GLOBAL__N_114GracefulGoawayE, i64 0, i32 0, i64 2), ptr %this, align 8
  %t_.i = getelementptr inbounds i8, ptr %this, i64 16
  %0 = load ptr, ptr %t_.i, align 8
  %cmp.not.i.i = icmp eq ptr %0, null
  br i1 %cmp.not.i.i, label %_ZN12_GLOBAL__N_114GracefulGoawayD2Ev.exit, label %if.then.i.i

if.then.i.i:                                      ; preds = %entry
  %add.ptr.i.i = getelementptr inbounds i8, ptr %0, i64 16
  %1 = atomicrmw sub ptr %add.ptr.i.i, i64 1 acq_rel, align 8
  %cmp.i.i.i.i = icmp eq i64 %1, 1
  br i1 %cmp.i.i.i.i, label %if.then.i.i.i, label %_ZN12_GLOBAL__N_114GracefulGoawayD2Ev.exit

if.then.i.i.i:                                    ; preds = %if.then.i.i
  tail call void @_ZN21grpc_chttp2_transportD1Ev(ptr noundef nonnull align 8 dereferenceable(3384) %0) #34
  tail call void @_ZdlPv(ptr noundef nonnull %0) #35
  br label %_ZN12_GLOBAL__N_114GracefulGoawayD2Ev.exit

_ZN12_GLOBAL__N_114GracefulGoawayD2Ev.exit:       ; preds = %entry, %if.then.i.i, %if.then.i.i.i
  tail call void @_ZdlPv(ptr noundef nonnull %this) #35
  ret void
}